; Function Attrs: nounwind uwtable
define internal i32 @msf_read_packet(ptr noundef readonly captures(none) %0, ptr noundef %1) #1 {
  %3 = getelementptr inbounds nuw i8, ptr %0, i64 48
  %4 = load ptr, ptr %3, align 8, !tbaa !56
  %5 = load ptr, ptr %4, align 8, !tbaa !57
  %6 = getelementptr inbounds nuw i8, ptr %5, i64 16
  %7 = load ptr, ptr %6, align 8, !tbaa !27
  %8 = getelementptr inbounds nuw i8, ptr %0, i64 32
  %9 = load ptr, ptr %8, align 8, !tbaa !12
  %10 = getelementptr inbounds nuw i8, ptr %7, i64 156
  %11 = load i32, ptr %10, align 4, !tbaa !39
  %.not = icmp eq i32 %11, 0
  br i1 %.not, label %12, label %16

12:                                               ; preds = %2
  %13 = getelementptr inbounds nuw i8, ptr %7, i64 132
  %14 = load i32, ptr %13, align 4, !tbaa !37
  %15 = shl nsw i32 %14, 10
  br label %16

16:                                               ; preds = %2, %12
  %17 = phi i32 [ %15, %12 ], [ %11, %2 ]
  %18 = tail call i32 @av_get_packet(ptr noundef %9, ptr noundef %1, i32 noundef %17) #6
  ret i32 %18
}